target datalayout = "e-m:e-p270:32:32-p271:32:32-p272:64:64-i64:64-i128:128-f80:128-n8:16:32:64-S128"
target triple = "x86_64-pc-linux-gnu"

%"class.Ipopt::PenaltyLSAcceptor" = type { %"class.Ipopt::BacktrackingLSAcceptor.base", double, double, double, double, i32, double, i32, double, double, double, double, %"class.Ipopt::SmartPtr.3", %"class.Ipopt::SmartPtr.3", double, double, double, double, double, double, double, %"class.Ipopt::SmartPtr.4" }
%"class.Ipopt::BacktrackingLSAcceptor.base" = type { %"class.Ipopt::AlgorithmStrategyObject.base" }
%"class.Ipopt::AlgorithmStrategyObject.base" = type <{ %"class.Ipopt::ReferencedObject.base", [4 x i8], %"class.Ipopt::SmartPtr", %"class.Ipopt::SmartPtr.0", %"class.Ipopt::SmartPtr.1", %"class.Ipopt::SmartPtr.2", i8 }>
%"class.Ipopt::ReferencedObject.base" = type <{ ptr, i32 }>
%"class.Ipopt::SmartPtr" = type { ptr }
%"class.Ipopt::SmartPtr.0" = type { ptr }
%"class.Ipopt::SmartPtr.1" = type { ptr }
%"class.Ipopt::SmartPtr.2" = type { ptr }
%"class.Ipopt::SmartPtr.3" = type { ptr }
%"class.Ipopt::SmartPtr.4" = type { ptr }
%"class.std::__cxx11::basic_string" = type { %"struct.std::__cxx11::basic_string<char>::_Alloc_hider", i64, %union.anon }
%"struct.std::__cxx11::basic_string<char>::_Alloc_hider" = type { ptr }
%union.anon = type { i64, [8 x i8] }
%"class.std::allocator.12" = type { i8 }
%"class.Ipopt::AlgorithmStrategyObject" = type <{ %"class.Ipopt::ReferencedObject.base", [4 x i8], %"class.Ipopt::SmartPtr", %"class.Ipopt::SmartPtr.0", %"class.Ipopt::SmartPtr.1", %"class.Ipopt::SmartPtr.2", i8, [7 x i8] }>

@.str.10 = private unnamed_addr constant [19 x i8] c" evaluated false: \00", align 1
@.str.12 = private unnamed_addr constant [34 x i8] c"Algorithm/IpPenaltyLSAcceptor.cpp\00", align 1
@.str.23 = private unnamed_addr constant [15 x i8] c"   Success...\0A\00", align 1
@.str.24 = private unnamed_addr constant [14 x i8] c"   Failed...\0A\00", align 1
@.str.32 = private unnamed_addr constant [18 x i8] c"resto_pred_ >= 0.\00", align 1
@.str.33 = private unnamed_addr constant [54 x i8] c"resto_pred_ not set for check from restoration phase.\00", align 1
@_ZTIN5Ipopt14INTERNAL_ABORTE = linkonce_odr constant { ptr, ptr, ptr } { ptr getelementptr inbounds (ptr, ptr @_ZTVN10__cxxabiv120__si_class_type_infoE, i64 2), ptr @_ZTSN5Ipopt14INTERNAL_ABORTE, ptr @_ZTIN5Ipopt14IpoptExceptionE }, comdat, align 8
@.str.34 = private unnamed_addr constant [80 x i8] c"  Checking Armijo Condition (for resto) with pred = %23.16e and ared = %23.16e\0A\00", align 1

; Function Attrs: mustprogress nounwind uwtable
define linkonce_odr noundef nonnull align 8 dereferenceable(40) ptr @_ZNK5Ipopt8SmartPtrIKNS_10JournalistEEdeEv(ptr noundef nonnull align 8 dereferenceable(8) %0) #5 comdat align 2 {
  %2 = alloca ptr, align 8
  store ptr %0, ptr %2, align 8
  %3 = load ptr, ptr %2, align 8
  %4 = getelementptr inbounds %"class.Ipopt::SmartPtr", ptr %3, i32 0, i32 0
  %5 = load ptr, ptr %4, align 8
  ret ptr %5
}

; Function Attrs: mustprogress uwtable
define linkonce_odr noundef nonnull align 8 dereferenceable(40) ptr @_ZNK5Ipopt23AlgorithmStrategyObject5JnlstEv(ptr noundef nonnull align 8 dereferenceable(49) %0) #4 comdat align 2 {
  %2 = alloca ptr, align 8
  store ptr %0, ptr %2, align 8
  %3 = load ptr, ptr %2, align 8
  %4 = getelementptr inbounds %"class.Ipopt::AlgorithmStrategyObject", ptr %3, i32 0, i32 2
  %5 = call noundef nonnull align 8 dereferenceable(40) ptr @_ZNK5Ipopt8SmartPtrIKNS_10JournalistEEdeEv(ptr noundef nonnull align 8 dereferenceable(8) %4)
  ret ptr %5
}

; Function Attrs: mustprogress uwtable
define noundef zeroext i1 @_ZNK5Ipopt17PenaltyLSAcceptor28IsAcceptableToCurrentIterateEddb(ptr noundef nonnull align 8 dereferenceable(224) %0, double noundef %1, double noundef %2, i1 noundef zeroext %3) #4 align 2 personality ptr @__gxx_personality_v0 {
  %5 = alloca ptr, align 8
  %6 = alloca double, align 8
  %7 = alloca double, align 8
  %8 = alloca i8, align 1
  %9 = alloca %"class.std::__cxx11::basic_string", align 8
  %10 = alloca %"class.std::allocator.12", align 1
  %11 = alloca ptr, align 8
  %12 = alloca i32, align 4
  %13 = alloca %"class.std::__cxx11::basic_string", align 8
  %14 = alloca %"class.std::allocator.12", align 1
  %15 = alloca i1, align 1
  %16 = alloca double, align 8
  %17 = alloca i8, align 1
  store ptr %0, ptr %5, align 8
  store double %1, ptr %6, align 8
  store double %2, ptr %7, align 8
  %18 = zext i1 %3 to i8
  store i8 %18, ptr %8, align 1
  %19 = load ptr, ptr %5, align 8
  %20 = getelementptr inbounds %"class.Ipopt::PenaltyLSAcceptor", ptr %19, i32 0, i32 20
  %21 = load double, ptr %20, align 8
  %22 = fcmp oge double %21, 0.000000e+00
  br i1 %22, label %53, label %23

23:                                               ; preds = %4
  call void @_ZNSaIcEC1Ev(ptr noundef nonnull align 1 dereferenceable(1) %10) #3
  invoke void @_ZNSt7__cxx1112basic_stringIcSt11char_traitsIcESaIcEEC2IS3_EEPKcRKS3_(ptr noundef nonnull align 8 dereferenceable(32) %9, ptr noundef @.str.32, ptr noundef nonnull align 1 dereferenceable(1) %10)
          to label %24 unwind label %32

24:                                               ; preds = %23
  call void @_ZNSaIcED1Ev(ptr noundef nonnull align 1 dereferenceable(1) %10) #3
  %25 = invoke noundef nonnull align 8 dereferenceable(32) ptr @_ZNSt7__cxx1112basic_stringIcSt11char_traitsIcESaIcEEpLEPKc(ptr noundef nonnull align 8 dereferenceable(32) %9, ptr noundef @.str.10)
          to label %26 unwind label %36

26:                                               ; preds = %24
  %27 = invoke noundef nonnull align 8 dereferenceable(32) ptr @_ZNSt7__cxx1112basic_stringIcSt11char_traitsIcESaIcEEpLEPKc(ptr noundef nonnull align 8 dereferenceable(32) %9, ptr noundef @.str.33)
          to label %28 unwind label %36

28:                                               ; preds = %26
  store i1 true, ptr %15, align 1
  %29 = call ptr @__cxa_allocate_exception(i64 112) #3
  call void @_ZNSaIcEC1Ev(ptr noundef nonnull align 1 dereferenceable(1) %14) #3
  invoke void @_ZNSt7__cxx1112basic_stringIcSt11char_traitsIcESaIcEEC2IS3_EEPKcRKS3_(ptr noundef nonnull align 8 dereferenceable(32) %13, ptr noundef @.str.12, ptr noundef nonnull align 1 dereferenceable(1) %14)
          to label %30 unwind label %40

30:                                               ; preds = %28
  invoke void @_ZN5Ipopt14INTERNAL_ABORTC2ERKNSt7__cxx1112basic_stringIcSt11char_traitsIcESaIcEEES8_i(ptr noundef nonnull align 8 dereferenceable(112) %29, ptr noundef nonnull align 8 dereferenceable(32) %9, ptr noundef nonnull align 8 dereferenceable(32) %13, i32 noundef 442)
          to label %31 unwind label %44

31:                                               ; preds = %30
  store i1 false, ptr %15, align 1
  invoke void @__cxa_throw(ptr %29, ptr @_ZTIN5Ipopt14INTERNAL_ABORTE, ptr @_ZN5Ipopt14INTERNAL_ABORTD2Ev) #15
          to label %106 unwind label %44

32:                                               ; preds = %23
  %33 = landingpad { ptr, i32 }
          cleanup
  %34 = extractvalue { ptr, i32 } %33, 0
  store ptr %34, ptr %11, align 8
  %35 = extractvalue { ptr, i32 } %33, 1
  store i32 %35, ptr %12, align 4
  call void @_ZNSaIcED1Ev(ptr noundef nonnull align 1 dereferenceable(1) %10) #3
  br label %101

36:                                               ; preds = %26, %24
  %37 = landingpad { ptr, i32 }
          cleanup
  %38 = extractvalue { ptr, i32 } %37, 0
  store ptr %38, ptr %11, align 8
  %39 = extractvalue { ptr, i32 } %37, 1
  store i32 %39, ptr %12, align 4
  br label %52

40:                                               ; preds = %28
  %41 = landingpad { ptr, i32 }
          cleanup
  %42 = extractvalue { ptr, i32 } %41, 0
  store ptr %42, ptr %11, align 8
  %43 = extractvalue { ptr, i32 } %41, 1
  store i32 %43, ptr %12, align 4
  br label %48

44:                                               ; preds = %31, %30
  %45 = landingpad { ptr, i32 }
          cleanup
  %46 = extractvalue { ptr, i32 } %45, 0
  store ptr %46, ptr %11, align 8
  %47 = extractvalue { ptr, i32 } %45, 1
  store i32 %47, ptr %12, align 4
  call void @_ZNSt7__cxx1112basic_stringIcSt11char_traitsIcESaIcEED1Ev(ptr noundef nonnull align 8 dereferenceable(32) %13) #3
  br label %48

48:                                               ; preds = %44, %40
  call void @_ZNSaIcED1Ev(ptr noundef nonnull align 1 dereferenceable(1) %14) #3
  %49 = load i1, ptr %15, align 1
  br i1 %49, label %50, label %51

50:                                               ; preds = %48
  call void @__cxa_free_exception(ptr %29) #3
  br label %51

51:                                               ; preds = %50, %48
  br label %52

52:                                               ; preds = %51, %36
  call void @_ZNSt7__cxx1112basic_stringIcSt11char_traitsIcESaIcEED1Ev(ptr noundef nonnull align 8 dereferenceable(32) %9) #3
  br label %101

53:                                               ; preds = %4
  %54 = getelementptr inbounds %"class.Ipopt::PenaltyLSAcceptor", ptr %19, i32 0, i32 9
  %55 = load double, ptr %54, align 8
  %56 = getelementptr inbounds %"class.Ipopt::PenaltyLSAcceptor", ptr %19, i32 0, i32 18
  %57 = load double, ptr %56, align 8
  %58 = getelementptr inbounds %"class.Ipopt::PenaltyLSAcceptor", ptr %19, i32 0, i32 8
  %59 = load double, ptr %58, align 8
  %60 = call double @llvm.fmuladd.f64(double %57, double %59, double %55)
  %61 = load double, ptr %6, align 8
  %62 = getelementptr inbounds %"class.Ipopt::PenaltyLSAcceptor", ptr %19, i32 0, i32 18
  %63 = load double, ptr %62, align 8
  %64 = load double, ptr %7, align 8
  %65 = call double @llvm.fmuladd.f64(double %63, double %64, double %61)
  %66 = fsub double %60, %65
  store double %66, ptr %16, align 8
  %67 = call noundef nonnull align 8 dereferenceable(40) ptr @_ZNK5Ipopt23AlgorithmStrategyObject5JnlstEv(ptr noundef nonnull align 8 dereferenceable(49) %19)
  %68 = getelementptr inbounds %"class.Ipopt::PenaltyLSAcceptor", ptr %19, i32 0, i32 20
  %69 = load double, ptr %68, align 8
  %70 = load double, ptr %16, align 8
  %71 = load ptr, ptr %67, align 8
  %72 = getelementptr inbounds ptr, ptr %71, i64 2
  %73 = load ptr, ptr %72, align 8
  call void (ptr, i32, i32, ptr, ...) %73(ptr noundef nonnull align 8 dereferenceable(40) %67, i32 noundef 6, i32 noundef 8, ptr noundef @.str.34, double noundef %69, double noundef %70)
  %74 = getelementptr inbounds %"class.Ipopt::PenaltyLSAcceptor", ptr %19, i32 0, i32 3
  %75 = load double, ptr %74, align 8
  %76 = getelementptr inbounds %"class.Ipopt::PenaltyLSAcceptor", ptr %19, i32 0, i32 20
  %77 = load double, ptr %76, align 8
  %78 = fmul double %75, %77
  %79 = load double, ptr %16, align 8
  %80 = getelementptr inbounds %"class.Ipopt::PenaltyLSAcceptor", ptr %19, i32 0, i32 9
  %81 = load double, ptr %80, align 8
  %82 = getelementptr inbounds %"class.Ipopt::PenaltyLSAcceptor", ptr %19, i32 0, i32 18
  %83 = load double, ptr %82, align 8
  %84 = getelementptr inbounds %"class.Ipopt::PenaltyLSAcceptor", ptr %19, i32 0, i32 8
  %85 = load double, ptr %84, align 8
  %86 = call double @llvm.fmuladd.f64(double %83, double %85, double %81)
  %87 = call noundef zeroext i1 @_ZN5Ipopt10Compare_leEddd(double noundef %78, double noundef %79, double noundef %86)
  br i1 %87, label %88, label %93

88:                                               ; preds = %53
  %89 = call noundef nonnull align 8 dereferenceable(40) ptr @_ZNK5Ipopt23AlgorithmStrategyObject5JnlstEv(ptr noundef nonnull align 8 dereferenceable(49) %19)
  %90 = load ptr, ptr %89, align 8
  %91 = getelementptr inbounds ptr, ptr %90, i64 2
  %92 = load ptr, ptr %91, align 8
  call void (ptr, i32, i32, ptr, ...) %92(ptr noundef nonnull align 8 dereferenceable(40) %89, i32 noundef 6, i32 noundef 8, ptr noundef @.str.23)
  store i8 1, ptr %17, align 1
  br label %98

93:                                               ; preds = %53
  %94 = call noundef nonnull align 8 dereferenceable(40) ptr @_ZNK5Ipopt23AlgorithmStrategyObject5JnlstEv(ptr noundef nonnull align 8 dereferenceable(49) %19)
  %95 = load ptr, ptr %94, align 8
  %96 = getelementptr inbounds ptr, ptr %95, i64 2
  %97 = load ptr, ptr %96, align 8
  call void (ptr, i32, i32, ptr, ...) %97(ptr noundef nonnull align 8 dereferenceable(40) %94, i32 noundef 6, i32 noundef 8, ptr noundef @.str.24)
  store i8 0, ptr %17, align 1
  br label %98

98:                                               ; preds = %93, %88
  %99 = load i8, ptr %17, align 1
  %100 = trunc i8 %99 to i1
  ret i1 %100

101:                                              ; preds = %52, %32
  %102 = load ptr, ptr %11, align 8
  %103 = load i32, ptr %12, align 4
  %104 = insertvalue { ptr, i32 } poison, ptr %102, 0
  %105 = insertvalue { ptr, i32 } %104, i32 %103, 1
  resume { ptr, i32 } %105

106:                                              ; preds = %31
  unreachable
}