; Function Attrs: mustprogress uwtable
define noundef zeroext i1 @_ZNK5Ipopt17PenaltyLSAcceptor28IsAcceptableToCurrentIterateEddb(ptr nocapture noundef nonnull readonly align 8 dereferenceable(224) %0, double noundef %1, double noundef %2, i1 noundef zeroext %3) local_unnamed_addr #3 align 2 personality ptr @__gxx_personality_v0 {
  %5 = alloca %"class.std::__cxx11::basic_string", align 8
  %6 = alloca %"class.std::allocator.12", align 1
  %7 = alloca %"class.std::__cxx11::basic_string", align 8
  %8 = alloca %"class.std::allocator.12", align 1
  %9 = getelementptr inbounds i8, ptr %0, i64 208
  %10 = load double, ptr %9, align 8
  %11 = fcmp ult double %10, 0.000000e+00
  br i1 %11, label %12, label %30

12:                                               ; preds = %4
  call void @_ZNSaIcEC1Ev(ptr noundef nonnull align 1 dereferenceable(1) %6) #22
  invoke void @_ZNSt7__cxx1112basic_stringIcSt11char_traitsIcESaIcEEC2IS3_EEPKcRKS3_(ptr noundef nonnull align 8 dereferenceable(32) %5, ptr noundef nonnull @.str.32, ptr noundef nonnull align 1 dereferenceable(1) %6)
          to label %13 unwind label %21

13:                                               ; preds = %12
  call void @_ZNSaIcED1Ev(ptr noundef nonnull align 1 dereferenceable(1) %6) #22
  %14 = invoke noundef nonnull align 8 dereferenceable(32) ptr @_ZNSt7__cxx1112basic_stringIcSt11char_traitsIcESaIcEEpLEPKc(ptr noundef nonnull align 8 dereferenceable(32) %5, ptr noundef nonnull @.str.10)
          to label %15 unwind label %23

15:                                               ; preds = %13
  %16 = invoke noundef nonnull align 8 dereferenceable(32) ptr @_ZNSt7__cxx1112basic_stringIcSt11char_traitsIcESaIcEEpLEPKc(ptr noundef nonnull align 8 dereferenceable(32) %5, ptr noundef nonnull @.str.33)
          to label %17 unwind label %23

17:                                               ; preds = %15
  %18 = call ptr @__cxa_allocate_exception(i64 112) #22
  call void @_ZNSaIcEC1Ev(ptr noundef nonnull align 1 dereferenceable(1) %8) #22
  invoke void @_ZNSt7__cxx1112basic_stringIcSt11char_traitsIcESaIcEEC2IS3_EEPKcRKS3_(ptr noundef nonnull align 8 dereferenceable(32) %7, ptr noundef nonnull @.str.12, ptr noundef nonnull align 1 dereferenceable(1) %8)
          to label %19 unwind label %.thread

19:                                               ; preds = %17
  invoke void @_ZN5Ipopt14INTERNAL_ABORTC2ERKNSt7__cxx1112basic_stringIcSt11char_traitsIcESaIcEEES8_i(ptr noundef nonnull align 8 dereferenceable(112) %18, ptr noundef nonnull align 8 dereferenceable(32) %5, ptr noundef nonnull align 8 dereferenceable(32) %7, i32 noundef 442)
          to label %20 unwind label %26

20:                                               ; preds = %19
  invoke void @__cxa_throw(ptr nonnull %18, ptr nonnull @_ZTIN5Ipopt14INTERNAL_ABORTE, ptr nonnull @_ZN5Ipopt14INTERNAL_ABORTD2Ev) #24
          to label %59 unwind label %26

21:                                               ; preds = %12
  %22 = landingpad { ptr, i32 }
          cleanup
  call void @_ZNSaIcED1Ev(ptr noundef nonnull align 1 dereferenceable(1) %6) #22
  br label %58

23:                                               ; preds = %15, %13
  %24 = landingpad { ptr, i32 }
          cleanup
  br label %29

.thread:                                          ; preds = %17
  %25 = landingpad { ptr, i32 }
          cleanup
  call void @_ZNSaIcED1Ev(ptr noundef nonnull align 1 dereferenceable(1) %8) #22
  br label %28

26:                                               ; preds = %19, %20
  %.09 = phi i1 [ false, %20 ], [ true, %19 ]
  %27 = landingpad { ptr, i32 }
          cleanup
  call void @_ZNSt7__cxx1112basic_stringIcSt11char_traitsIcESaIcEED1Ev(ptr noundef nonnull align 8 dereferenceable(32) %7) #22
  call void @_ZNSaIcED1Ev(ptr noundef nonnull align 1 dereferenceable(1) %8) #22
  br i1 %.09, label %28, label %29

28:                                               ; preds = %.thread, %26
  %.pn19 = phi { ptr, i32 } [ %25, %.thread ], [ %27, %26 ]
  call void @__cxa_free_exception(ptr %18) #22
  br label %29

29:                                               ; preds = %26, %28, %23
  %.pn.pn = phi { ptr, i32 } [ %.pn19, %28 ], [ %27, %26 ], [ %24, %23 ]
  call void @_ZNSt7__cxx1112basic_stringIcSt11char_traitsIcESaIcEED1Ev(ptr noundef nonnull align 8 dereferenceable(32) %5) #22
  br label %58

30:                                               ; preds = %4
  %31 = getelementptr inbounds i8, ptr %0, i64 120
  %32 = load double, ptr %31, align 8
  %33 = getelementptr inbounds i8, ptr %0, i64 192
  %34 = load double, ptr %33, align 8
  %35 = getelementptr inbounds i8, ptr %0, i64 112
  %36 = load double, ptr %35, align 8
  %37 = tail call double @llvm.fmuladd.f64(double %34, double %36, double %32)
  %38 = tail call double @llvm.fmuladd.f64(double %34, double %2, double %1)
  %39 = fsub double %37, %38
  %40 = getelementptr inbounds i8, ptr %0, i64 16
  %41 = load ptr, ptr %40, align 8
  %42 = load ptr, ptr %41, align 8
  %43 = getelementptr inbounds i8, ptr %42, i64 16
  %44 = load ptr, ptr %43, align 8
  tail call void (ptr, i32, i32, ptr, ...) %44(ptr noundef nonnull align 8 dereferenceable(40) %41, i32 noundef 6, i32 noundef 8, ptr noundef nonnull @.str.34, double noundef %10, double noundef %39)
  %45 = getelementptr inbounds i8, ptr %0, i64 72
  %46 = load double, ptr %45, align 8
  %47 = load double, ptr %9, align 8
  %48 = fmul double %46, %47
  %49 = load double, ptr %31, align 8
  %50 = load double, ptr %33, align 8
  %51 = load double, ptr %35, align 8
  %52 = tail call double @llvm.fmuladd.f64(double %50, double %51, double %49)
  %53 = tail call noundef zeroext i1 @_ZN5Ipopt10Compare_leEddd(double noundef %48, double noundef %39, double noundef %52)
  %54 = load ptr, ptr %40, align 8
  %55 = load ptr, ptr %54, align 8
  %56 = getelementptr inbounds i8, ptr %55, i64 16
  %57 = load ptr, ptr %56, align 8
  %.str.23..str.24 = select i1 %53, ptr @.str.23, ptr @.str.24
  tail call void (ptr, i32, i32, ptr, ...) %57(ptr noundef nonnull align 8 dereferenceable(40) %54, i32 noundef 6, i32 noundef 8, ptr noundef nonnull %.str.23..str.24)
  ret i1 %53

58:                                               ; preds = %29, %21
  %.pn.pn.pn = phi { ptr, i32 } [ %.pn.pn, %29 ], [ %22, %21 ]
  resume { ptr, i32 } %.pn.pn.pn

59:                                               ; preds = %20
  unreachable
}